target datalayout = "e-m:e-p270:32:32-p271:32:32-p272:64:64-i64:64-i128:128-f80:128-n8:16:32:64-S128"
target triple = "x86_64-pc-linux-gnu"

%struct.persist_msg_t = type { ptr, ptr, i16 }
%struct.dbd_list_msg_t = type { ptr, i32 }
%struct.persist_rc_msg_t = type { ptr, i16, i32, i16 }
%struct.dbd_cond_msg_t = type { ptr }

@plugin_type = dso_local constant [28 x i8] c"accounting_storage/slurmdbd\00", align 16
@.str.7 = private unnamed_addr constant [3 x i8] c"%s\00", align 1
@.str.8 = private unnamed_addr constant [35 x i8] c"response type not DBD_GOT_LIST: %u\00", align 1
@.str.24 = private unnamed_addr constant [11 x i8] c"%s: %s: %s\00", align 1
@.str.30 = private unnamed_addr constant [27 x i8] c"DBD_REMOVE_RES failure: %m\00", align 1
@__func__.acct_storage_p_remove_res = private unnamed_addr constant [26 x i8] c"acct_storage_p_remove_res\00", align 1

; Function Attrs: nounwind uwtable
define dso_local ptr @acct_storage_p_remove_res(ptr noundef %0, i32 noundef %1, ptr noundef %2) #0 {
  %4 = alloca ptr, align 8
  %5 = alloca i32, align 4
  %6 = alloca ptr, align 8
  %7 = alloca %struct.persist_msg_t, align 8
  %8 = alloca %struct.dbd_cond_msg_t, align 8
  %9 = alloca i32, align 4
  %10 = alloca %struct.persist_msg_t, align 8
  %11 = alloca ptr, align 8
  %12 = alloca ptr, align 8
  %13 = alloca ptr, align 8
  store ptr %0, ptr %4, align 8
  store i32 %1, ptr %5, align 4
  store ptr %2, ptr %6, align 8
  call void @llvm.lifetime.start.p0(i64 24, ptr %7) #9
  call void @llvm.memset.p0.i64(ptr align 8 %7, i8 0, i64 24, i1 false)
  call void @llvm.lifetime.start.p0(i64 8, ptr %8) #9
  call void @llvm.lifetime.start.p0(i64 4, ptr %9) #9
  call void @llvm.lifetime.start.p0(i64 24, ptr %10) #9
  call void @llvm.memset.p0.i64(ptr align 8 %10, i8 0, i64 24, i1 false)
  call void @llvm.lifetime.start.p0(i64 8, ptr %11) #9
  call void @llvm.lifetime.start.p0(i64 8, ptr %12) #9
  store ptr null, ptr %12, align 8
  call void @llvm.memset.p0.i64(ptr align 8 %8, i8 0, i64 8, i1 false)
  %14 = load ptr, ptr %6, align 8
  %15 = getelementptr inbounds nuw %struct.dbd_cond_msg_t, ptr %8, i32 0, i32 0
  store ptr %14, ptr %15, align 8
  %16 = getelementptr inbounds nuw %struct.persist_msg_t, ptr %7, i32 0, i32 2
  store i16 1480, ptr %16, align 8
  %17 = load ptr, ptr %4, align 8
  %18 = getelementptr inbounds nuw %struct.persist_msg_t, ptr %7, i32 0, i32 0
  store ptr %17, ptr %18, align 8
  %19 = getelementptr inbounds nuw %struct.persist_msg_t, ptr %7, i32 0, i32 1
  store ptr %8, ptr %19, align 8
  %20 = call i32 @dbd_conn_send_recv(i16 noundef zeroext 11008, ptr noundef %7, ptr noundef %10)
  store i32 %20, ptr %9, align 4
  %21 = load i32, ptr %9, align 4
  %22 = icmp ne i32 %21, 0
  br i1 %22, label %23, label %25

23:                                               ; preds = %3
  %24 = call i32 (ptr, ...) @slurm_error(ptr noundef @.str.30)
  br label %89

25:                                               ; preds = %3
  %26 = getelementptr inbounds nuw %struct.persist_msg_t, ptr %10, i32 0, i32 2
  %27 = load i16, ptr %26, align 8
  %28 = zext i16 %27 to i32
  %29 = icmp eq i32 %28, 1433
  br i1 %29, label %30, label %68

30:                                               ; preds = %25
  call void @llvm.lifetime.start.p0(i64 8, ptr %13) #9
  %31 = getelementptr inbounds nuw %struct.persist_msg_t, ptr %10, i32 0, i32 1
  %32 = load ptr, ptr %31, align 8
  store ptr %32, ptr %13, align 8
  %33 = load ptr, ptr %13, align 8
  %34 = getelementptr inbounds nuw %struct.persist_rc_msg_t, ptr %33, i32 0, i32 2
  %35 = load i32, ptr %34, align 4
  %36 = icmp eq i32 %35, 0
  br i1 %36, label %37, label %52

37:                                               ; preds = %30
  br label %38

38:                                               ; preds = %37
  br label %39

39:                                               ; preds = %38
  %40 = call i32 @slurm_get_log_level()
  %41 = icmp sge i32 %40, 3
  br i1 %41, label %42, label %46

42:                                               ; preds = %39
  %43 = load ptr, ptr %13, align 8
  %44 = getelementptr inbounds nuw %struct.persist_rc_msg_t, ptr %43, i32 0, i32 0
  %45 = load ptr, ptr %44, align 8
  call void (i32, ptr, ...) @slurm_log_var(i32 noundef 3, ptr noundef @.str.24, ptr noundef @plugin_type, ptr noundef @__func__.acct_storage_p_remove_res, ptr noundef %45)
  br label %46

46:                                               ; preds = %42, %39
  br label %47

47:                                               ; preds = %46
  br label %48

48:                                               ; preds = %47
  br label %49

49:                                               ; preds = %48
  br label %50

50:                                               ; preds = %49
  %51 = call ptr @slurm_list_create(ptr noundef null)
  store ptr %51, ptr %12, align 8
  br label %66

52:                                               ; preds = %30
  %53 = load ptr, ptr %13, align 8
  %54 = getelementptr inbounds nuw %struct.persist_rc_msg_t, ptr %53, i32 0, i32 2
  %55 = load i32, ptr %54, align 4
  %56 = call ptr @__errno_location() #10
  store i32 %55, ptr %56, align 4
  %57 = call ptr @__errno_location() #10
  %58 = load i32, ptr %57, align 4
  %59 = icmp ne i32 %58, 1900
  br i1 %59, label %60, label %65

60:                                               ; preds = %52
  %61 = load ptr, ptr %13, align 8
  %62 = getelementptr inbounds nuw %struct.persist_rc_msg_t, ptr %61, i32 0, i32 0
  %63 = load ptr, ptr %62, align 8
  %64 = call i32 (ptr, ...) @slurm_error(ptr noundef @.str.7, ptr noundef %63)
  br label %65

65:                                               ; preds = %60, %52
  br label %66

66:                                               ; preds = %65, %50
  %67 = load ptr, ptr %13, align 8
  call void @slurm_persist_free_rc_msg(ptr noundef %67)
  call void @llvm.lifetime.end.p0(i64 8, ptr %13) #9
  br label %88

68:                                               ; preds = %25
  %69 = getelementptr inbounds nuw %struct.persist_msg_t, ptr %10, i32 0, i32 2
  %70 = load i16, ptr %69, align 8
  %71 = zext i16 %70 to i32
  %72 = icmp ne i32 %71, 1422
  br i1 %72, label %73, label %78

73:                                               ; preds = %68
  %74 = getelementptr inbounds nuw %struct.persist_msg_t, ptr %10, i32 0, i32 2
  %75 = load i16, ptr %74, align 8
  %76 = zext i16 %75 to i32
  %77 = call i32 (ptr, ...) @slurm_error(ptr noundef @.str.8, i32 noundef %76)
  br label %87

78:                                               ; preds = %68
  %79 = getelementptr inbounds nuw %struct.persist_msg_t, ptr %10, i32 0, i32 1
  %80 = load ptr, ptr %79, align 8
  store ptr %80, ptr %11, align 8
  %81 = load ptr, ptr %11, align 8
  %82 = getelementptr inbounds nuw %struct.dbd_list_msg_t, ptr %81, i32 0, i32 0
  %83 = load ptr, ptr %82, align 8
  store ptr %83, ptr %12, align 8
  %84 = load ptr, ptr %11, align 8
  %85 = getelementptr inbounds nuw %struct.dbd_list_msg_t, ptr %84, i32 0, i32 0
  store ptr null, ptr %85, align 8
  %86 = load ptr, ptr %11, align 8
  call void @slurm_slurmdbd_free_list_msg(ptr noundef %86)
  br label %87

87:                                               ; preds = %78, %73
  br label %88

88:                                               ; preds = %87, %66
  br label %89

89:                                               ; preds = %88, %23
  %90 = load ptr, ptr %12, align 8
  call void @llvm.lifetime.end.p0(i64 8, ptr %12) #9
  call void @llvm.lifetime.end.p0(i64 8, ptr %11) #9
  call void @llvm.lifetime.end.p0(i64 24, ptr %10) #9
  call void @llvm.lifetime.end.p0(i64 4, ptr %9) #9
  call void @llvm.lifetime.end.p0(i64 8, ptr %8) #9
  call void @llvm.lifetime.end.p0(i64 24, ptr %7) #9
  ret ptr %90
}